target datalayout = "e-m:e-p270:32:32-p271:32:32-p272:64:64-i64:64-i128:128-f80:128-n8:16:32:64-S128"
target triple = "x86_64-pc-linux-gnu"

%"class.std::_Function_base" = type { %"union.std::_Any_data", ptr }
%"union.std::_Any_data" = type { %"union.std::_Nocopy_types" }
%"union.std::_Nocopy_types" = type { { i64, i64 } }
%"class.gmx::EnergyData" = type { %"class.std::unique_ptr", %"class.std::unique_ptr.41", %class.ekinstate_t, i8, [3 x [3 x float]], [3 x [3 x float]], [3 x [3 x float]], [3 x [3 x float]], [3 x float], i64, i64, i64, i64, i8, i8, i32, ptr, ptr, %"class.std::vector.52", %"class.std::function.57", ptr, ptr, ptr, ptr, ptr, ptr, ptr, ptr, ptr, ptr, ptr, i8, ptr }
%"class.std::unique_ptr" = type { %"struct.std::__uniq_ptr_data" }
%"struct.std::__uniq_ptr_data" = type { %"class.std::__uniq_ptr_impl" }
%"class.std::__uniq_ptr_impl" = type { %"class.std::tuple" }
%"class.std::tuple" = type { %"struct.std::_Tuple_impl" }
%"struct.std::_Tuple_impl" = type { %"struct.std::_Head_base.40" }
%"struct.std::_Head_base.40" = type { ptr }
%"class.std::unique_ptr.41" = type { %"struct.std::__uniq_ptr_data.42" }
%"struct.std::__uniq_ptr_data.42" = type { %"class.std::__uniq_ptr_impl.43" }
%"class.std::__uniq_ptr_impl.43" = type { %"class.std::tuple.44" }
%"class.std::tuple.44" = type { %"struct.std::_Tuple_impl.45" }
%"struct.std::_Tuple_impl.45" = type { %"struct.std::_Head_base.48" }
%"struct.std::_Head_base.48" = type { ptr }
%class.ekinstate_t = type <{ i8, [3 x i8], i32, ptr, ptr, ptr, [3 x [3 x float]], [4 x i8], %"class.std::vector", %"class.std::vector", %"class.std::vector", float, float, i8, [7 x i8] }>
%"class.std::vector" = type { %"struct.std::_Vector_base" }
%"struct.std::_Vector_base" = type { %"struct.std::_Vector_base<double, std::allocator<double>>::_Vector_impl" }
%"struct.std::_Vector_base<double, std::allocator<double>>::_Vector_impl" = type { %"struct.std::_Vector_base<double, std::allocator<double>>::_Vector_impl_data" }
%"struct.std::_Vector_base<double, std::allocator<double>>::_Vector_impl_data" = type { ptr, ptr, ptr }
%"class.std::vector.52" = type { %"struct.std::_Vector_base.53" }
%"struct.std::_Vector_base.53" = type { %"struct.std::_Vector_base<std::function<float (long, double)>, std::allocator<std::function<float (long, double)>>>::_Vector_impl" }
%"struct.std::_Vector_base<std::function<float (long, double)>, std::allocator<std::function<float (long, double)>>>::_Vector_impl" = type { %"struct.std::_Vector_base<std::function<float (long, double)>, std::allocator<std::function<float (long, double)>>>::_Vector_impl_data" }
%"struct.std::_Vector_base<std::function<float (long, double)>, std::allocator<std::function<float (long, double)>>>::_Vector_impl_data" = type { ptr, ptr, ptr }
%"class.std::function.57" = type { %"class.std::_Function_base", ptr }
%struct.t_inputrec = type { i32, i32, i64, i32, i64, i32, i32, i32, i32, i32, i32, i32, i32, i32, i32, i32, double, double, i8, %"class.std::vector.59", float, float, float, i32, i32, i32, i32, float, float, i32, float, i32, i32, i8, i8, i32, float, i32, i32, i8, %struct.PressureCouplingOptions, %"class.std::vector.64", %"class.std::vector.64", i32, float, float, float, float, i32, i32, float, float, float, float, i8, i32, i32, float, float, i32, float, float, i32, %"class.std::unique_ptr.69", i8, %"class.std::unique_ptr.77", i8, %"class.std::unique_ptr.85", i32, float, i32, i8, i32, float, float, float, i32, float, float, i32, float, i32, i32, i32, i32, float, i32, i8, float, i64, i32, i32, float, [2 x i32], [2 x float], float, i8, %"class.std::unique_ptr.93", i8, %"class.std::unique_ptr.101", i8, %"class.std::unique_ptr.109", i32, ptr, i8, ptr, float, [3 x [3 x float]], i32, i32, i32, i32, float, float, float, float, %struct.t_grpopts, i8, i8, i8, i8, ptr, %"class.std::unique_ptr.117" }
%"class.std::vector.59" = type { %"struct.std::_Vector_base.60" }
%"struct.std::_Vector_base.60" = type { %"struct.std::_Vector_base<gmx::MtsLevel, std::allocator<gmx::MtsLevel>>::_Vector_impl" }
%"struct.std::_Vector_base<gmx::MtsLevel, std::allocator<gmx::MtsLevel>>::_Vector_impl" = type { %"struct.std::_Vector_base<gmx::MtsLevel, std::allocator<gmx::MtsLevel>>::_Vector_impl_data" }
%"struct.std::_Vector_base<gmx::MtsLevel, std::allocator<gmx::MtsLevel>>::_Vector_impl_data" = type { ptr, ptr, ptr }
%struct.PressureCouplingOptions = type { i32, i32, i32, float, [3 x [3 x float]], [3 x [3 x float]], i32 }
%"class.std::vector.64" = type { %"struct.std::_Vector_base.65" }
%"struct.std::_Vector_base.65" = type { %"struct.std::_Vector_base<gmx::BasicVector<float>, std::allocator<gmx::BasicVector<float>>>::_Vector_impl" }
%"struct.std::_Vector_base<gmx::BasicVector<float>, std::allocator<gmx::BasicVector<float>>>::_Vector_impl" = type { %"struct.std::_Vector_base<gmx::BasicVector<float>, std::allocator<gmx::BasicVector<float>>>::_Vector_impl_data" }
%"struct.std::_Vector_base<gmx::BasicVector<float>, std::allocator<gmx::BasicVector<float>>>::_Vector_impl_data" = type { ptr, ptr, ptr }
%"class.std::unique_ptr.69" = type { %"struct.std::__uniq_ptr_data.70" }
%"struct.std::__uniq_ptr_data.70" = type { %"class.std::__uniq_ptr_impl.71" }
%"class.std::__uniq_ptr_impl.71" = type { %"class.std::tuple.72" }
%"class.std::tuple.72" = type { %"struct.std::_Tuple_impl.73" }
%"struct.std::_Tuple_impl.73" = type { %"struct.std::_Head_base.76" }
%"struct.std::_Head_base.76" = type { ptr }
%"class.std::unique_ptr.77" = type { %"struct.std::__uniq_ptr_data.78" }
%"struct.std::__uniq_ptr_data.78" = type { %"class.std::__uniq_ptr_impl.79" }
%"class.std::__uniq_ptr_impl.79" = type { %"class.std::tuple.80" }
%"class.std::tuple.80" = type { %"struct.std::_Tuple_impl.81" }
%"struct.std::_Tuple_impl.81" = type { %"struct.std::_Head_base.84" }
%"struct.std::_Head_base.84" = type { ptr }
%"class.std::unique_ptr.85" = type { %"struct.std::__uniq_ptr_data.86" }
%"struct.std::__uniq_ptr_data.86" = type { %"class.std::__uniq_ptr_impl.87" }
%"class.std::__uniq_ptr_impl.87" = type { %"class.std::tuple.88" }
%"class.std::tuple.88" = type { %"struct.std::_Tuple_impl.89" }
%"struct.std::_Tuple_impl.89" = type { %"struct.std::_Head_base.92" }
%"struct.std::_Head_base.92" = type { ptr }
%"class.std::unique_ptr.93" = type { %"struct.std::__uniq_ptr_data.94" }
%"struct.std::__uniq_ptr_data.94" = type { %"class.std::__uniq_ptr_impl.95" }
%"class.std::__uniq_ptr_impl.95" = type { %"class.std::tuple.96" }
%"class.std::tuple.96" = type { %"struct.std::_Tuple_impl.97" }
%"struct.std::_Tuple_impl.97" = type { %"struct.std::_Head_base.100" }
%"struct.std::_Head_base.100" = type { ptr }
%"class.std::unique_ptr.101" = type { %"struct.std::__uniq_ptr_data.102" }
%"struct.std::__uniq_ptr_data.102" = type { %"class.std::__uniq_ptr_impl.103" }
%"class.std::__uniq_ptr_impl.103" = type { %"class.std::tuple.104" }
%"class.std::tuple.104" = type { %"struct.std::_Tuple_impl.105" }
%"struct.std::_Tuple_impl.105" = type { %"struct.std::_Head_base.108" }
%"struct.std::_Head_base.108" = type { ptr }
%"class.std::unique_ptr.109" = type { %"struct.std::__uniq_ptr_data.110" }
%"struct.std::__uniq_ptr_data.110" = type { %"class.std::__uniq_ptr_impl.111" }
%"class.std::__uniq_ptr_impl.111" = type { %"class.std::tuple.112" }
%"class.std::tuple.112" = type { %"struct.std::_Tuple_impl.113" }
%"struct.std::_Tuple_impl.113" = type { %"struct.std::_Head_base.116" }
%"struct.std::_Head_base.116" = type { ptr }
%struct.t_grpopts = type <{ i32, i32, i32, i32, i32, [4 x i8], ptr, ptr, ptr, ptr, ptr, ptr, ptr, ptr, ptr, ptr, i32, [4 x i8] }>
%"class.std::unique_ptr.117" = type { %"struct.std::__uniq_ptr_data.118" }
%"struct.std::__uniq_ptr_data.118" = type { %"class.std::__uniq_ptr_impl.119" }
%"class.std::__uniq_ptr_impl.119" = type { %"class.std::tuple.120" }
%"class.std::tuple.120" = type { %"struct.std::_Tuple_impl.121" }
%"struct.std::_Tuple_impl.121" = type { %"struct.std::_Head_base.124" }
%"struct.std::_Head_base.124" = type { ptr }
%"class.std::vector.227" = type { %"struct.std::_Vector_base.228" }
%"struct.std::_Vector_base.228" = type { %"struct.std::_Vector_base<float, std::allocator<float>>::_Vector_impl" }
%"struct.std::_Vector_base<float, std::allocator<float>>::_Vector_impl" = type { %"struct.std::_Vector_base<float, std::allocator<float>>::_Vector_impl_data" }
%"struct.std::_Vector_base<float, std::allocator<float>>::_Vector_impl_data" = type { ptr, ptr, ptr }
%struct.gmx_enerdata_t = type { %"struct.std::array", %struct.gmx_grppairener_t, %"struct.gmx::EnumerationArray.259", %"struct.gmx::EnumerationArray.259", %class.ForeignLambdaTerms }
%"struct.std::array" = type { [95 x float] }
%struct.gmx_grppairener_t = type { i32, %"struct.gmx::EnumerationArray.258" }
%"struct.gmx::EnumerationArray.258" = type { [5 x %"class.std::vector.227"] }
%"struct.gmx::EnumerationArray.259" = type { [7 x double] }
%class.ForeignLambdaTerms = type <{ i32, [4 x i8], ptr, %"class.std::vector", %"class.std::vector.260", i8, [7 x i8] }>
%"class.std::vector.260" = type { %"struct.std::_Vector_base.261" }
%"struct.std::_Vector_base.261" = type { %"struct.std::_Vector_base<gmx::EnumerationArray<FreeEnergyPerturbationCouplingType, double>, std::allocator<gmx::EnumerationArray<FreeEnergyPerturbationCouplingType, double>>>::_Vector_impl" }
%"struct.std::_Vector_base<gmx::EnumerationArray<FreeEnergyPerturbationCouplingType, double>, std::allocator<gmx::EnumerationArray<FreeEnergyPerturbationCouplingType, double>>>::_Vector_impl" = type { %"struct.std::_Vector_base<gmx::EnumerationArray<FreeEnergyPerturbationCouplingType, double>, std::allocator<gmx::EnumerationArray<FreeEnergyPerturbationCouplingType, double>>>::_Vector_impl_data" }
%"struct.std::_Vector_base<gmx::EnumerationArray<FreeEnergyPerturbationCouplingType, double>, std::allocator<gmx::EnumerationArray<FreeEnergyPerturbationCouplingType, double>>>::_Vector_impl_data" = type { ptr, ptr, ptr }
%class.gmx_ekindata_t = type <{ %"class.std::vector.227", i32, float, %"class.std::vector.434", ptr, ptr, ptr, [3 x [3 x float]], [3 x [3 x float]], float, float, %"class.std::unique_ptr.439", %"class.std::vector.447", %struct.t_cos_acc, i8, [3 x i8], i32, [4 x i8] }>
%"class.std::vector.434" = type { %"struct.std::_Vector_base.435" }
%"struct.std::_Vector_base.435" = type { %"struct.std::_Vector_base<t_grp_tcstat, std::allocator<t_grp_tcstat>>::_Vector_impl" }
%"struct.std::_Vector_base<t_grp_tcstat, std::allocator<t_grp_tcstat>>::_Vector_impl" = type { %"struct.std::_Vector_base<t_grp_tcstat, std::allocator<t_grp_tcstat>>::_Vector_impl_data" }
%"struct.std::_Vector_base<t_grp_tcstat, std::allocator<t_grp_tcstat>>::_Vector_impl_data" = type { ptr, ptr, ptr }
%"class.std::unique_ptr.439" = type { %"struct.std::__uniq_ptr_data.440" }
%"struct.std::__uniq_ptr_data.440" = type { %"class.std::__uniq_ptr_impl.441" }
%"class.std::__uniq_ptr_impl.441" = type { %"class.std::tuple.442" }
%"class.std::tuple.442" = type { %"struct.std::_Tuple_impl.443" }
%"struct.std::_Tuple_impl.443" = type { %"struct.std::_Head_base.446" }
%"struct.std::_Head_base.446" = type { ptr }
%"class.std::vector.447" = type { %"struct.std::_Vector_base.448" }
%"struct.std::_Vector_base.448" = type { %"struct.std::_Vector_base<std::unique_ptr<SystemMomentum>, std::allocator<std::unique_ptr<SystemMomentum>>>::_Vector_impl" }
%"struct.std::_Vector_base<std::unique_ptr<SystemMomentum>, std::allocator<std::unique_ptr<SystemMomentum>>>::_Vector_impl" = type { %"struct.std::_Vector_base<std::unique_ptr<SystemMomentum>, std::allocator<std::unique_ptr<SystemMomentum>>>::_Vector_impl_data" }
%"struct.std::_Vector_base<std::unique_ptr<SystemMomentum>, std::allocator<std::unique_ptr<SystemMomentum>>>::_Vector_impl_data" = type { ptr, ptr, ptr }
%struct.t_cos_acc = type { float, float, float }

; Function Attrs: mustprogress nounwind uwtable
define linkonce_odr noundef nonnull align 4 dereferenceable(4) ptr @_ZNSt14__array_traitsIfLm95EE6_S_refERA95_Kfm(ptr noundef nonnull align 4 dereferenceable(380) %0, i64 noundef %1) #1 comdat align 2 {
  %3 = alloca ptr, align 8
  %4 = alloca i64, align 8
  store ptr %0, ptr %3, align 8, !tbaa !178
  store i64 %1, ptr %4, align 8, !tbaa !9
  %5 = load ptr, ptr %3, align 8, !tbaa !178
  %6 = load i64, ptr %4, align 8, !tbaa !9
  %7 = getelementptr inbounds nuw [95 x float], ptr %5, i64 0, i64 %6
  ret ptr %7
}

; Function Attrs: inlinehint mustprogress nounwind uwtable
define internal noundef float @_ZL5tracePA3_Kf(ptr noundef %0) #2 {
  %2 = alloca ptr, align 8
  store ptr %0, ptr %2, align 8, !tbaa !178
  %3 = load ptr, ptr %2, align 8, !tbaa !178
  %4 = getelementptr inbounds [3 x float], ptr %3, i64 0
  %5 = getelementptr inbounds [3 x float], ptr %4, i64 0, i64 0
  %6 = load float, ptr %5, align 4, !tbaa !179
  %7 = load ptr, ptr %2, align 8, !tbaa !178
  %8 = getelementptr inbounds [3 x float], ptr %7, i64 1
  %9 = getelementptr inbounds [3 x float], ptr %8, i64 0, i64 1
  %10 = load float, ptr %9, align 4, !tbaa !179
  %11 = fadd float %6, %10
  %12 = load ptr, ptr %2, align 8, !tbaa !178
  %13 = getelementptr inbounds [3 x float], ptr %12, i64 2
  %14 = getelementptr inbounds [3 x float], ptr %13, i64 0, i64 2
  %15 = load float, ptr %14, align 4, !tbaa !179
  %16 = fadd float %11, %15
  ret float %16
}

; Function Attrs: mustprogress nounwind uwtable
define linkonce_odr noundef nonnull align 4 dereferenceable(4) ptr @_ZNSt5arrayIfLm95EEixEm(ptr noundef nonnull align 4 dereferenceable(380) %0, i64 noundef %1) #1 comdat align 2 {
  %3 = alloca ptr, align 8
  %4 = alloca i64, align 8
  store ptr %0, ptr %3, align 8, !tbaa !556
  store i64 %1, ptr %4, align 8, !tbaa !9
  %5 = load ptr, ptr %3, align 8
  %6 = getelementptr inbounds nuw %"struct.std::array", ptr %5, i32 0, i32 0
  %7 = load i64, ptr %4, align 8, !tbaa !9
  %8 = call noundef nonnull align 4 dereferenceable(4) ptr @_ZNSt14__array_traitsIfLm95EE6_S_refERA95_Kfm(ptr noundef nonnull align 4 dereferenceable(380) %6, i64 noundef %7) #22
  ret ptr %8
}

; Function Attrs: mustprogress uwtable
define void @_ZN3gmx10EnergyData19updateKineticEnergyEv(ptr noundef nonnull align 8 dereferenceable(552) %0) #0 align 2 {
  %2 = alloca ptr, align 8
  %3 = alloca ptr, align 8
  %4 = alloca i8, align 1
  %5 = alloca i8, align 1
  store ptr %0, ptr %2, align 8, !tbaa !129
  %6 = load ptr, ptr %2, align 8
  call void @llvm.lifetime.start.p0(i64 8, ptr %3) #22
  store ptr null, ptr %3, align 8, !tbaa !178
  call void @llvm.lifetime.start.p0(i64 1, ptr %4) #22
  %7 = getelementptr inbounds nuw %"class.gmx::EnergyData", ptr %6, i32 0, i32 20
  %8 = load ptr, ptr %7, align 8, !tbaa !152
  %9 = getelementptr inbounds nuw %struct.t_inputrec, ptr %8, i32 0, i32 1
  %10 = load i32, ptr %9, align 4, !tbaa !496
  %11 = icmp eq i32 %10, 10
  %12 = zext i1 %11 to i8
  store i8 %12, ptr %4, align 1, !tbaa !31
  call void @llvm.lifetime.start.p0(i64 1, ptr %5) #22
  store i8 0, ptr %5, align 1, !tbaa !31
  %13 = getelementptr inbounds nuw %"class.gmx::EnergyData", ptr %6, i32 0, i32 20
  %14 = load ptr, ptr %13, align 8, !tbaa !152
  %15 = getelementptr inbounds nuw %struct.t_inputrec, ptr %14, i32 0, i32 116
  %16 = getelementptr inbounds nuw %"class.gmx::EnergyData", ptr %6, i32 0, i32 24
  %17 = load ptr, ptr %16, align 8, !tbaa !65
  %18 = load ptr, ptr %3, align 8, !tbaa !178
  %19 = load i8, ptr %4, align 1, !tbaa !31, !range !28, !noundef !29
  %20 = trunc i8 %19 to i1
  %21 = call noundef float @_Z8sum_ekinPK9t_grpoptsP14gmx_ekindata_tPfbb(ptr noundef %15, ptr noundef %17, ptr noundef %18, i1 noundef zeroext %20, i1 noundef zeroext false)
  %22 = getelementptr inbounds nuw %"class.gmx::EnergyData", ptr %6, i32 0, i32 23
  %23 = load ptr, ptr %22, align 8, !tbaa !154
  %24 = getelementptr inbounds nuw %struct.gmx_enerdata_t, ptr %23, i32 0, i32 0
  %25 = call noundef nonnull align 4 dereferenceable(4) ptr @_ZNSt5arrayIfLm95EEixEm(ptr noundef nonnull align 4 dereferenceable(380) %24, i64 noundef 83) #22
  store float %21, ptr %25, align 4, !tbaa !179
  %26 = getelementptr inbounds nuw %"class.gmx::EnergyData", ptr %6, i32 0, i32 24
  %27 = load ptr, ptr %26, align 8, !tbaa !65
  %28 = getelementptr inbounds nuw %class.gmx_ekindata_t, ptr %27, i32 0, i32 7
  %29 = getelementptr inbounds [3 x [3 x float]], ptr %28, i64 0, i64 0
  %30 = call noundef float @_ZL5tracePA3_Kf(ptr noundef %29)
  %31 = getelementptr inbounds nuw %"class.gmx::EnergyData", ptr %6, i32 0, i32 23
  %32 = load ptr, ptr %31, align 8, !tbaa !154
  %33 = getelementptr inbounds nuw %struct.gmx_enerdata_t, ptr %32, i32 0, i32 0
  %34 = call noundef nonnull align 4 dereferenceable(4) ptr @_ZNSt5arrayIfLm95EEixEm(ptr noundef nonnull align 4 dereferenceable(380) %33, i64 noundef 80) #22
  store float %30, ptr %34, align 4, !tbaa !179
  call void @llvm.lifetime.end.p0(i64 1, ptr %5) #22
  call void @llvm.lifetime.end.p0(i64 1, ptr %4) #22
  call void @llvm.lifetime.end.p0(i64 8, ptr %3) #22
  ret void
}