; Function Attrs: mustprogress uwtable
define void @_ZN3gmx10EnergyData19updateKineticEnergyEv(ptr noundef nonnull readonly align 8 captures(none) dereferenceable(552) %0) local_unnamed_addr #0 align 2 {
  %2 = getelementptr inbounds nuw i8, ptr %0, i64 448
  %3 = load ptr, ptr %2, align 8, !tbaa !145
  %4 = getelementptr inbounds nuw i8, ptr %3, i64 4
  %5 = load i32, ptr %4, align 4, !tbaa !319
  %6 = icmp eq i32 %5, 10
  %7 = getelementptr inbounds nuw i8, ptr %3, i64 744
  %8 = getelementptr inbounds nuw i8, ptr %0, i64 480
  %9 = load ptr, ptr %8, align 8, !tbaa !63
  %10 = tail call noundef float @_Z8sum_ekinPK9t_grpoptsP14gmx_ekindata_tPfbb(ptr noundef nonnull %7, ptr noundef %9, ptr noundef null, i1 noundef zeroext %6, i1 noundef zeroext false)
  %11 = getelementptr inbounds nuw i8, ptr %0, i64 472
  %12 = load ptr, ptr %11, align 8, !tbaa !148
  %13 = getelementptr inbounds nuw i8, ptr %12, i64 332
  store float %10, ptr %13, align 4, !tbaa !186
  %14 = load ptr, ptr %8, align 8, !tbaa !63
  %15 = getelementptr inbounds nuw i8, ptr %14, i64 80
  %16 = load float, ptr %15, align 4, !tbaa !186
  %17 = getelementptr inbounds nuw i8, ptr %14, i64 96
  %18 = load float, ptr %17, align 4, !tbaa !186
  %19 = fadd float %16, %18
  %20 = getelementptr inbounds nuw i8, ptr %14, i64 112
  %21 = load float, ptr %20, align 4, !tbaa !186
  %22 = fadd float %19, %21
  %23 = getelementptr inbounds nuw i8, ptr %12, i64 320
  store float %22, ptr %23, align 4, !tbaa !186
  ret void
}